target datalayout = "e-m:e-p270:32:32-p271:32:32-p272:64:64-i64:64-i128:128-f80:128-n8:16:32:64-S128"
target triple = "x86_64-pc-linux-gnu"

%union.pthread_mutex_t = type { %struct.__pthread_mutex_s }
%struct.__pthread_mutex_s = type { i32, i32, i32, i32, i32, i16, i16, %struct.__pthread_internal_list }
%struct.__pthread_internal_list = type { ptr, ptr }
%struct.job_state_t = type { i64, i64, i32, i64 }

@.str.2 = private unnamed_addr constant [29 x i8] c"%s: pthread_mutex_lock(): %m\00", align 1
@.str.7 = private unnamed_addr constant [31 x i8] c"%s: pthread_mutex_unlock(): %m\00", align 1
@cred_job_list = internal global ptr null, align 8
@cred_cache_mutex = internal global %union.pthread_mutex_t zeroinitializer, align 8
@__func__.cred_insert_jobid = private unnamed_addr constant [18 x i8] c"cred_insert_jobid\00", align 1
@.str.8 = private unnamed_addr constant [44 x i8] c"%s: we already have a job state for job %u.\00", align 1
@.str.13 = private unnamed_addr constant [15 x i8] c"cred_context.c\00", align 1
@.str.16 = private unnamed_addr constant [53 x i8] c"No cred_job_list, unable to clear expired job states\00", align 1
@__func__._job_state_create = private unnamed_addr constant [18 x i8] c"_job_state_create\00", align 1

; Function Attrs: nounwind uwtable
define internal ptr @_job_state_create(i32 noundef %0) #0 {
  %2 = alloca i32, align 4
  %3 = alloca ptr, align 8
  store i32 %0, ptr %2, align 4
  call void @llvm.lifetime.start.p0(i64 8, ptr %3) #7
  %4 = call ptr @slurm_xcalloc(i64 noundef 1, i64 noundef 32, i1 noundef zeroext true, i1 noundef zeroext false, ptr noundef @.str.13, i32 noundef 90, ptr noundef @__func__._job_state_create)
  store ptr %4, ptr %3, align 8
  %5 = load i32, ptr %2, align 4
  %6 = load ptr, ptr %3, align 8
  %7 = getelementptr inbounds nuw %struct.job_state_t, ptr %6, i32 0, i32 2
  store i32 %5, ptr %7, align 8
  %8 = load ptr, ptr %3, align 8
  %9 = getelementptr inbounds nuw %struct.job_state_t, ptr %8, i32 0, i32 3
  store i64 0, ptr %9, align 8
  %10 = call i64 @time(ptr noundef null) #7
  %11 = load ptr, ptr %3, align 8
  %12 = getelementptr inbounds nuw %struct.job_state_t, ptr %11, i32 0, i32 0
  store i64 %10, ptr %12, align 8
  %13 = load ptr, ptr %3, align 8
  %14 = getelementptr inbounds nuw %struct.job_state_t, ptr %13, i32 0, i32 1
  store i64 2147483647, ptr %14, align 8
  %15 = load ptr, ptr %3, align 8
  call void @llvm.lifetime.end.p0(i64 8, ptr %3) #7
  ret ptr %15
}

; Function Attrs: nounwind uwtable
define internal ptr @_find_job_state(i32 noundef %0) #0 {
  %2 = alloca i32, align 4
  store i32 %0, ptr %2, align 4
  %3 = load ptr, ptr @cred_job_list, align 8
  %4 = call ptr @list_find_first(ptr noundef %3, ptr noundef @_list_find_job_state, ptr noundef %2)
  ret ptr %4
}

; Function Attrs: nounwind uwtable
define internal void @_clear_expired_job_states() #0 {
  %1 = alloca i64, align 8
  %2 = alloca i32, align 4
  call void @llvm.lifetime.start.p0(i64 8, ptr %1) #7
  %3 = load ptr, ptr @cred_job_list, align 8
  %4 = icmp ne ptr %3, null
  br i1 %4, label %6, label %5

5:                                                ; preds = %0
  call void (ptr, ...) @warning(ptr noundef @.str.16)
  store i32 1, ptr %2, align 4
  br label %10

6:                                                ; preds = %0
  %7 = call i64 @time(ptr noundef null) #7
  store i64 %7, ptr %1, align 8
  %8 = load ptr, ptr @cred_job_list, align 8
  %9 = call i32 @list_delete_all(ptr noundef %8, ptr noundef @_list_find_expired_job_state, ptr noundef %1)
  store i32 0, ptr %2, align 4
  br label %10

10:                                               ; preds = %6, %5
  call void @llvm.lifetime.end.p0(i64 8, ptr %1) #7
  %11 = load i32, ptr %2, align 4
  switch i32 %11, label %13 [
    i32 0, label %12
    i32 1, label %12
  ]

12:                                               ; preds = %10, %10
  ret void

13:                                               ; preds = %10
  unreachable
}

; Function Attrs: nounwind uwtable
define dso_local i32 @cred_insert_jobid(i32 noundef %0) #0 {
  %2 = alloca i32, align 4
  %3 = alloca i32, align 4
  %4 = alloca ptr, align 8
  %5 = alloca i32, align 4
  store i32 %0, ptr %2, align 4
  br label %6

6:                                                ; preds = %1
  call void @llvm.lifetime.start.p0(i64 4, ptr %3) #7
  %7 = call i32 @pthread_mutex_lock(ptr noundef @cred_cache_mutex) #7
  store i32 %7, ptr %3, align 4
  %8 = load i32, ptr %3, align 4
  %9 = icmp ne i32 %8, 0
  br i1 %9, label %10, label %13

10:                                               ; preds = %6
  %11 = load i32, ptr %3, align 4
  %12 = call ptr @__errno_location() #8
  store i32 %11, ptr %12, align 4
  call void (ptr, ...) @fatal_abort(ptr noundef @.str.2, ptr noundef @__func__.cred_insert_jobid) #9
  unreachable

13:                                               ; preds = %6
  call void @llvm.lifetime.end.p0(i64 4, ptr %3) #7
  br label %14

14:                                               ; preds = %13
  call void @_clear_expired_job_states()
  %15 = load i32, ptr %2, align 4
  %16 = call ptr @_find_job_state(i32 noundef %15)
  %17 = icmp ne ptr %16, null
  br i1 %17, label %18, label %28

18:                                               ; preds = %14
  br label %19

19:                                               ; preds = %18
  br label %20

20:                                               ; preds = %19
  %21 = call i32 @get_log_level()
  %22 = icmp sge i32 %21, 6
  br i1 %22, label %23, label %25

23:                                               ; preds = %20
  %24 = load i32, ptr %2, align 4
  call void (i32, ptr, ...) @log_var(i32 noundef 6, ptr noundef @.str.8, ptr noundef @__func__.cred_insert_jobid, i32 noundef %24)
  br label %25

25:                                               ; preds = %23, %20
  br label %26

26:                                               ; preds = %25
  br label %27

27:                                               ; preds = %26
  br label %33

28:                                               ; preds = %14
  call void @llvm.lifetime.start.p0(i64 8, ptr %4) #7
  %29 = load i32, ptr %2, align 4
  %30 = call ptr @_job_state_create(i32 noundef %29)
  store ptr %30, ptr %4, align 8
  %31 = load ptr, ptr @cred_job_list, align 8
  %32 = load ptr, ptr %4, align 8
  call void @list_append(ptr noundef %31, ptr noundef %32)
  call void @llvm.lifetime.end.p0(i64 8, ptr %4) #7
  br label %33

33:                                               ; preds = %28, %27
  br label %34

34:                                               ; preds = %33
  call void @llvm.lifetime.start.p0(i64 4, ptr %5) #7
  %35 = call i32 @pthread_mutex_unlock(ptr noundef @cred_cache_mutex) #7
  store i32 %35, ptr %5, align 4
  %36 = load i32, ptr %5, align 4
  %37 = icmp ne i32 %36, 0
  br i1 %37, label %38, label %41

38:                                               ; preds = %34
  %39 = load i32, ptr %5, align 4
  %40 = call ptr @__errno_location() #8
  store i32 %39, ptr %40, align 4
  call void (ptr, ...) @fatal_abort(ptr noundef @.str.7, ptr noundef @__func__.cred_insert_jobid) #9
  unreachable

41:                                               ; preds = %34
  call void @llvm.lifetime.end.p0(i64 4, ptr %5) #7
  br label %42

42:                                               ; preds = %41
  ret i32 0
}