; Function Attrs: nounwind uwtable
define dso_local noundef i32 @cred_insert_jobid(i32 noundef %0) local_unnamed_addr #0 {
  %2 = alloca i32, align 4
  %3 = alloca i64, align 8
  %4 = tail call i32 @pthread_mutex_lock(ptr noundef nonnull @cred_cache_mutex) #10
  %.not = icmp eq i32 %4, 0
  br i1 %.not, label %7, label %5

5:                                                ; preds = %1
  %6 = tail call ptr @__errno_location() #11
  store i32 %4, ptr %6, align 4
  tail call void (ptr, ...) @fatal_abort(ptr noundef nonnull @.str.2, ptr noundef nonnull @__func__.cred_insert_jobid) #12
  unreachable

7:                                                ; preds = %1
  call void @llvm.lifetime.start.p0(i64 8, ptr nonnull %3) #10
  %8 = load ptr, ptr @cred_job_list, align 8
  %.not.i = icmp eq ptr %8, null
  br i1 %.not.i, label %9, label %10

9:                                                ; preds = %7
  tail call void (ptr, ...) @warning(ptr noundef nonnull @.str.16) #10
  br label %_clear_expired_job_states.exit

10:                                               ; preds = %7
  %11 = tail call i64 @time(ptr noundef null) #10
  store i64 %11, ptr %3, align 8
  %12 = load ptr, ptr @cred_job_list, align 8
  %13 = call i32 @list_delete_all(ptr noundef %12, ptr noundef nonnull @_list_find_expired_job_state, ptr noundef nonnull %3) #10
  br label %_clear_expired_job_states.exit

_clear_expired_job_states.exit:                   ; preds = %9, %10
  call void @llvm.lifetime.end.p0(i64 8, ptr nonnull %3) #10
  call void @llvm.lifetime.start.p0(i64 4, ptr nonnull %2)
  store i32 %0, ptr %2, align 4
  %14 = load ptr, ptr @cred_job_list, align 8
  %15 = call ptr @list_find_first(ptr noundef %14, ptr noundef nonnull @_list_find_job_state, ptr noundef nonnull %2) #10
  call void @llvm.lifetime.end.p0(i64 4, ptr nonnull %2)
  %.not8 = icmp eq ptr %15, null
  br i1 %.not8, label %20, label %16

16:                                               ; preds = %_clear_expired_job_states.exit
  %17 = call i32 @get_log_level() #10
  %18 = icmp sgt i32 %17, 5
  br i1 %18, label %19, label %27

19:                                               ; preds = %16
  call void (i32, ptr, ...) @log_var(i32 noundef 6, ptr noundef nonnull @.str.8, ptr noundef nonnull @__func__.cred_insert_jobid, i32 noundef %0) #10
  br label %27

20:                                               ; preds = %_clear_expired_job_states.exit
  %21 = call ptr @slurm_xcalloc(i64 noundef 1, i64 noundef 32, i1 noundef zeroext true, i1 noundef zeroext false, ptr noundef nonnull @.str.13, i32 noundef 90, ptr noundef nonnull @__func__._job_state_create) #10
  %22 = getelementptr inbounds nuw i8, ptr %21, i64 16
  store i32 %0, ptr %22, align 8
  %23 = getelementptr inbounds nuw i8, ptr %21, i64 24
  store i64 0, ptr %23, align 8
  %24 = call i64 @time(ptr noundef null) #10
  store i64 %24, ptr %21, align 8
  %25 = getelementptr inbounds nuw i8, ptr %21, i64 8
  store i64 2147483647, ptr %25, align 8
  %26 = load ptr, ptr @cred_job_list, align 8
  call void @list_append(ptr noundef %26, ptr noundef nonnull %21) #10
  br label %27

27:                                               ; preds = %20, %19, %16
  %28 = call i32 @pthread_mutex_unlock(ptr noundef nonnull @cred_cache_mutex) #10
  %.not9 = icmp eq i32 %28, 0
  br i1 %.not9, label %31, label %29

29:                                               ; preds = %27
  %30 = tail call ptr @__errno_location() #11
  store i32 %28, ptr %30, align 4
  call void (ptr, ...) @fatal_abort(ptr noundef nonnull @.str.7, ptr noundef nonnull @__func__.cred_insert_jobid) #12
  unreachable

31:                                               ; preds = %27
  ret i32 0
}